; ModuleID = '15/146.c'
source_filename = "15/146.c"
target datalayout = "e-m:e-p270:32:32-p271:32:32-p272:64:64-i64:64-f80:128-n8:16:32:64-S128"
target triple = "x86_64-pc-linux-gnu"

@.str = private unnamed_addr constant [3 x i8] c"%d\00", align 1
@.str.1 = private unnamed_addr constant [4 x i8] c"%d\0A\00", align 1

; Function Attrs: noinline nounwind uwtable
define dso_local i32 @main() #0 {
  %1 = alloca i32, align 4
  %2 = alloca i32, align 4
  %3 = alloca i32*, align 8
  %4 = alloca i32, align 4
  %5 = alloca i32, align 4
  %6 = alloca i32, align 4
  %7 = alloca i32, align 4
  %8 = alloca i32, align 4
  %9 = alloca i32, align 4
  %10 = alloca i32, align 4
  %11 = alloca i32, align 4
  %12 = alloca i32, align 4
  %13 = alloca i32, align 4
  %14 = alloca i32, align 4
  %15 = alloca i32, align 4
  store i32 0, i32* %1, align 4
  %16 = call i32 (i8*, ...) @__isoc99_scanf(i8* getelementptr inbounds ([3 x i8], [3 x i8]* @.str, i64 0, i64 0), i32* %2)
  %17 = load i32, i32* %2, align 4
  %18 = sext i32 %17 to i64
  %19 = mul i64 4, %18
  %20 = load i32, i32* %2, align 4
  %21 = sext i32 %20 to i64
  %22 = mul i64 %19, %21
  %23 = call noalias i8* @malloc(i64 %22) #3
  %24 = bitcast i8* %23 to i32*
  store i32* %24, i32** %3, align 8
  store i32 0, i32* %7, align 4
  store i32 0, i32* %8, align 4
  store i32 0, i32* %9, align 4
  store i32 0, i32* %10, align 4
  store i32 0, i32* %4, align 4
  br label %25

25:                                               ; preds = %73, %0
  %26 = load i32, i32* %4, align 4
  %27 = load i32, i32* %2, align 4
  %28 = icmp slt i32 %26, %27
  br i1 %28, label %29, label %76

29:                                               ; preds = %25
  store i32 0, i32* %5, align 4
  br label %30

30:                                               ; preds = %44, %29
  %31 = load i32, i32* %5, align 4
  %32 = load i32, i32* %2, align 4
  %33 = icmp slt i32 %31, %32
  br i1 %33, label %34, label %47

34:                                               ; preds = %30
  %35 = load i32*, i32** %3, align 8
  %36 = load i32, i32* %4, align 4
  %37 = load i32, i32* %2, align 4
  %38 = mul nsw i32 %36, %37
  %39 = load i32, i32* %5, align 4
  %40 = add nsw i32 %38, %39
  %41 = sext i32 %40 to i64
  %42 = getelementptr inbounds i32, i32* %35, i64 %41
  %43 = call i32 (i8*, ...) @__isoc99_scanf(i8* getelementptr inbounds ([3 x i8], [3 x i8]* @.str, i64 0, i64 0), i32* %42)
  br label %44

44:                                               ; preds = %34
  %45 = load i32, i32* %5, align 4
  %46 = add nsw i32 %45, 1
  store i32 %46, i32* %5, align 4
  br label %30

47:                                               ; preds = %30
  store i32 0, i32* %6, align 4
  br label %48

48:                                               ; preds = %69, %47
  %49 = load i32, i32* %6, align 4
  %50 = load i32, i32* %2, align 4
  %51 = icmp slt i32 %49, %50
  br i1 %51, label %52, label %72

52:                                               ; preds = %48
  %53 = load i32*, i32** %3, align 8
  %54 = load i32, i32* %4, align 4
  %55 = load i32, i32* %2, align 4
  %56 = mul nsw i32 %54, %55
  %57 = load i32, i32* %6, align 4
  %58 = add nsw i32 %56, %57
  %59 = sext i32 %58 to i64
  %60 = getelementptr inbounds i32, i32* %53, i64 %59
  %61 = load i32, i32* %60, align 4
  %62 = icmp eq i32 %61, 0
  br i1 %62, label %63, label %68

63:                                               ; preds = %52
  %64 = load i32, i32* %4, align 4
  %65 = add nsw i32 %64, 1
  store i32 %65, i32* %7, align 4
  %66 = load i32, i32* %6, align 4
  %67 = add nsw i32 %66, 1
  store i32 %67, i32* %8, align 4
  br label %68

68:                                               ; preds = %63, %52
  br label %69

69:                                               ; preds = %68
  %70 = load i32, i32* %6, align 4
  %71 = add nsw i32 %70, 1
  store i32 %71, i32* %6, align 4
  br label %48

72:                                               ; preds = %48
  br label %73

73:                                               ; preds = %72
  %74 = load i32, i32* %4, align 4
  %75 = add nsw i32 %74, 1
  store i32 %75, i32* %4, align 4
  br label %25

76:                                               ; preds = %25
  %77 = load i32, i32* %2, align 4
  %78 = sub nsw i32 %77, 1
  store i32 %78, i32* %11, align 4
  br label %79

79:                                               ; preds = %109, %76
  %80 = load i32, i32* %11, align 4
  %81 = icmp sge i32 %80, 0
  br i1 %81, label %82, label %112

82:                                               ; preds = %79
  %83 = load i32, i32* %2, align 4
  %84 = sub nsw i32 %83, 1
  store i32 %84, i32* %12, align 4
  br label %85

85:                                               ; preds = %105, %82
  %86 = load i32, i32* %12, align 4
  %87 = icmp sge i32 %86, 0
  br i1 %87, label %88, label %108

88:                                               ; preds = %85
  %89 = load i32*, i32** %3, align 8
  %90 = load i32, i32* %11, align 4
  %91 = load i32, i32* %2, align 4
  %92 = mul nsw i32 %90, %91
  %93 = load i32, i32* %12, align 4
  %94 = add nsw i32 %92, %93
  %95 = sext i32 %94 to i64
  %96 = getelementptr inbounds i32, i32* %89, i64 %95
  %97 = load i32, i32* %96, align 4
  %98 = icmp eq i32 %97, 0
  br i1 %98, label %99, label %104

99:                                               ; preds = %88
  %100 = load i32, i32* %11, align 4
  %101 = add nsw i32 %100, 1
  store i32 %101, i32* %9, align 4
  %102 = load i32, i32* %12, align 4
  %103 = add nsw i32 %102, 1
  store i32 %103, i32* %10, align 4
  br label %104

104:                                              ; preds = %99, %88
  br label %105

105:                                              ; preds = %104
  %106 = load i32, i32* %12, align 4
  %107 = add nsw i32 %106, -1
  store i32 %107, i32* %12, align 4
  br label %85

108:                                              ; preds = %85
  br label %109

109:                                              ; preds = %108
  %110 = load i32, i32* %11, align 4
  %111 = add nsw i32 %110, -1
  store i32 %111, i32* %11, align 4
  br label %79

112:                                              ; preds = %79
  %113 = load i32, i32* %8, align 4
  %114 = load i32, i32* %10, align 4
  %115 = sub nsw i32 %113, %114
  %116 = sub nsw i32 %115, 1
  store i32 %116, i32* %14, align 4
  %117 = load i32, i32* %7, align 4
  %118 = load i32, i32* %9, align 4
  %119 = sub nsw i32 %117, %118
  %120 = sub nsw i32 %119, 1
  store i32 %120, i32* %13, align 4
  %121 = load i32, i32* %13, align 4
  %122 = load i32, i32* %14, align 4
  %123 = mul nsw i32 %121, %122
  store i32 %123, i32* %15, align 4
  %124 = load i32, i32* %15, align 4
  %125 = call i32 (i8*, ...) @printf(i8* getelementptr inbounds ([4 x i8], [4 x i8]* @.str.1, i64 0, i64 0), i32 %124)
  ret i32 0
}

declare dso_local i32 @__isoc99_scanf(i8*, ...) #1

; Function Attrs: nounwind
declare dso_local noalias i8* @malloc(i64) #2

declare dso_local i32 @printf(i8*, ...) #1


!llvm.module.flags = !{!0}
!llvm.ident = !{!1}

!0 = !{i32 1, !"wchar_size", i32 4}
!1 = !{!"clang version 10.0.0-4ubuntu1 "}
